target datalayout = "e-m:e-p270:32:32-p271:32:32-p272:64:64-i64:64-i128:128-f80:128-n8:16:32:64-S128"
target triple = "x86_64-pc-linux-gnu"

%struct.PPS = type { i32, i32, i32, i32, i32, i32, [2 x i32], i32, i32, i32, i32, [2 x i32], i32, i32, i32, i32, i32, i16, [6 x [16 x i8]], [6 x [64 x i8]], [2 x [88 x i8]], i32, [4096 x i8], i64, [6 x [88 x [16 x i32]]], [6 x [88 x [64 x i32]]], [6 x ptr], [6 x ptr], ptr }

@ff_h264_chroma_qp = external constant [7 x [88 x i8]], align 16

; Function Attrs: alwaysinline nounwind willreturn memory(none) uwtable
define internal i32 @av_clip_c(i32 noundef %0, i32 noundef %1, i32 noundef %2) #7 {
  %4 = alloca i32, align 4
  %5 = alloca i32, align 4
  %6 = alloca i32, align 4
  %7 = alloca i32, align 4
  store i32 %0, ptr %5, align 4, !tbaa !9
  store i32 %1, ptr %6, align 4, !tbaa !9
  store i32 %2, ptr %7, align 4, !tbaa !9
  %8 = load i32, ptr %5, align 4, !tbaa !9
  %9 = load i32, ptr %6, align 4, !tbaa !9
  %10 = icmp slt i32 %8, %9
  br i1 %10, label %11, label %13

11:                                               ; preds = %3
  %12 = load i32, ptr %6, align 4, !tbaa !9
  store i32 %12, ptr %4, align 4
  br label %21

13:                                               ; preds = %3
  %14 = load i32, ptr %5, align 4, !tbaa !9
  %15 = load i32, ptr %7, align 4, !tbaa !9
  %16 = icmp sgt i32 %14, %15
  br i1 %16, label %17, label %19

17:                                               ; preds = %13
  %18 = load i32, ptr %7, align 4, !tbaa !9
  store i32 %18, ptr %4, align 4
  br label %21

19:                                               ; preds = %13
  %20 = load i32, ptr %5, align 4, !tbaa !9
  store i32 %20, ptr %4, align 4
  br label %21

21:                                               ; preds = %19, %17, %11
  %22 = load i32, ptr %4, align 4
  ret i32 %22
}

; Function Attrs: nounwind uwtable
define internal void @build_qp_table(ptr noundef %0, i32 noundef %1, i32 noundef %2, i32 noundef %3) #0 {
  %5 = alloca ptr, align 8
  %6 = alloca i32, align 4
  %7 = alloca i32, align 4
  %8 = alloca i32, align 4
  %9 = alloca i32, align 4
  %10 = alloca i32, align 4
  store ptr %0, ptr %5, align 8, !tbaa !98
  store i32 %1, ptr %6, align 4, !tbaa !9
  store i32 %2, ptr %7, align 4, !tbaa !9
  store i32 %3, ptr %8, align 4, !tbaa !9
  call void @llvm.lifetime.start.p0(i64 4, ptr %9) #8
  call void @llvm.lifetime.start.p0(i64 4, ptr %10) #8
  %11 = load i32, ptr %8, align 4, !tbaa !9
  %12 = sub nsw i32 %11, 8
  %13 = mul nsw i32 6, %12
  %14 = add nsw i32 51, %13
  store i32 %14, ptr %10, align 4, !tbaa !9
  store i32 0, ptr %9, align 4, !tbaa !9
  br label %15

15:                                               ; preds = %41, %4
  %16 = load i32, ptr %9, align 4, !tbaa !9
  %17 = load i32, ptr %10, align 4, !tbaa !9
  %18 = add nsw i32 %17, 1
  %19 = icmp slt i32 %16, %18
  br i1 %19, label %20, label %44

20:                                               ; preds = %15
  %21 = load i32, ptr %8, align 4, !tbaa !9
  %22 = sub nsw i32 %21, 8
  %23 = sext i32 %22 to i64
  %24 = getelementptr inbounds [7 x [88 x i8]], ptr @ff_h264_chroma_qp, i64 0, i64 %23
  %25 = load i32, ptr %9, align 4, !tbaa !9
  %26 = load i32, ptr %7, align 4, !tbaa !9
  %27 = add nsw i32 %25, %26
  %28 = load i32, ptr %10, align 4, !tbaa !9
  %29 = call i32 @av_clip_c(i32 noundef %27, i32 noundef 0, i32 noundef %28) #10
  %30 = sext i32 %29 to i64
  %31 = getelementptr inbounds [88 x i8], ptr %24, i64 0, i64 %30
  %32 = load i8, ptr %31, align 1, !tbaa !34
  %33 = load ptr, ptr %5, align 8, !tbaa !98
  %34 = getelementptr inbounds nuw %struct.PPS, ptr %33, i32 0, i32 20
  %35 = load i32, ptr %6, align 4, !tbaa !9
  %36 = sext i32 %35 to i64
  %37 = getelementptr inbounds [2 x [88 x i8]], ptr %34, i64 0, i64 %36
  %38 = load i32, ptr %9, align 4, !tbaa !9
  %39 = sext i32 %38 to i64
  %40 = getelementptr inbounds [88 x i8], ptr %37, i64 0, i64 %39
  store i8 %32, ptr %40, align 1, !tbaa !34
  br label %41

41:                                               ; preds = %20
  %42 = load i32, ptr %9, align 4, !tbaa !9
  %43 = add nsw i32 %42, 1
  store i32 %43, ptr %9, align 4, !tbaa !9
  br label %15, !llvm.loop !127

44:                                               ; preds = %15
  call void @llvm.lifetime.end.p0(i64 4, ptr %10) #8
  call void @llvm.lifetime.end.p0(i64 4, ptr %9) #8
  ret void
}