; Function Attrs: nofree norecurse nosync nounwind memory(argmem: write) uwtable
define internal fastcc void @build_qp_table(ptr noundef writeonly captures(none) %0, i32 noundef range(i32 0, 2) %1, i32 noundef %2, i32 noundef %3) unnamed_addr #7 {
  %5 = add i32 %3, -8
  %6 = mul i32 %5, 6
  %7 = add i32 %6, 51
  %8 = icmp sgt i32 %3, -1
  br i1 %8, label %.lr.ph, label %._crit_edge

.lr.ph:                                           ; preds = %4
  %9 = sext i32 %5 to i64
  %10 = getelementptr inbounds nuw i8, ptr %0, i64 558
  %11 = zext nneg i32 %1 to i64
  %12 = sext i32 %2 to i64
  %smax = tail call i32 @llvm.smax.i32(i32 %7, i32 0)
  %13 = add nuw i32 %smax, 1
  %wide.trip.count = zext i32 %13 to i64
  br label %14

14:                                               ; preds = %.lr.ph, %14
  %indvars.iv = phi i64 [ 0, %.lr.ph ], [ %indvars.iv.next, %14 ]
  %15 = add nsw i64 %indvars.iv, %12
  %16 = icmp slt i64 %15, 0
  %17 = trunc nsw i64 %15 to i32
  %..i = tail call i32 @llvm.smin.i32(i32 %17, i32 %7)
  %18 = sext i32 %..i to i64
  %19 = select i1 %16, i64 0, i64 %18
  %20 = getelementptr inbounds [7 x [88 x i8]], ptr @ff_h264_chroma_qp, i64 0, i64 %9, i64 %19
  %21 = load i8, ptr %20, align 1, !tbaa !27
  %22 = getelementptr inbounds nuw [2 x [88 x i8]], ptr %10, i64 0, i64 %11, i64 %indvars.iv
  store i8 %21, ptr %22, align 1, !tbaa !27
  %indvars.iv.next = add nuw nsw i64 %indvars.iv, 1
  %exitcond.not = icmp eq i64 %indvars.iv.next, %wide.trip.count
  br i1 %exitcond.not, label %._crit_edge, label %14, !llvm.loop !118

._crit_edge:                                      ; preds = %14, %4
  ret void
}